target datalayout = "e-m:e-p270:32:32-p271:32:32-p272:64:64-i64:64-i128:128-f80:128-n8:16:32:64-S128"
target triple = "x86_64-pc-linux-gnu"

%struct.ImVec2 = type { float, float }
%struct.ImVec4 = type { float, float, float, float }
%struct.ImDrawListSharedData = type { %struct.ImVec2, ptr, float, float, float, float, %struct.ImVec4, i32, %struct.ImVector, [48 x %struct.ImVec2], float, [64 x i8], ptr }
%struct.ImVector = type { i32, i32, ptr }
%struct.ImDrawList = type { %struct.ImVector.0, %struct.ImVector.1, %struct.ImVector.2, i32, i32, ptr, ptr, ptr, %struct.ImVector, %struct.ImDrawCmdHeader, %struct.ImDrawListSplitter, %struct.ImVector.4, %struct.ImVector.5, float, ptr }
%struct.ImVector.0 = type { i32, i32, ptr }
%struct.ImVector.1 = type { i32, i32, ptr }
%struct.ImVector.2 = type { i32, i32, ptr }
%struct.ImDrawCmdHeader = type <{ %struct.ImVec4, ptr, i32, [4 x i8] }>
%struct.ImDrawListSplitter = type { i32, i32, %struct.ImVector.3 }
%struct.ImVector.3 = type { i32, i32, ptr }
%struct.ImVector.4 = type { i32, i32, ptr }
%struct.ImVector.5 = type { i32, i32, ptr }

; Function Attrs: inlinehint mustprogress nounwind uwtable
define internal noundef float @_ZL5ImMinIfET_S0_S0_(float noundef %0, float noundef %1) #7 {
  %3 = alloca float, align 4
  %4 = alloca float, align 4
  store float %0, ptr %3, align 4, !tbaa !12
  store float %1, ptr %4, align 4, !tbaa !12
  %5 = load float, ptr %3, align 4, !tbaa !12
  %6 = load float, ptr %4, align 4, !tbaa !12
  %7 = fcmp olt float %5, %6
  br i1 %7, label %8, label %10

8:                                                ; preds = %2
  %9 = load float, ptr %3, align 4, !tbaa !12
  br label %12

10:                                               ; preds = %2
  %11 = load float, ptr %4, align 4, !tbaa !12
  br label %12

12:                                               ; preds = %10, %8
  %13 = phi float [ %9, %8 ], [ %11, %10 ]
  ret float %13
}

; Function Attrs: inlinehint mustprogress nounwind uwtable
define internal noundef float @_ZL5ImMaxIfET_S0_S0_(float noundef %0, float noundef %1) #7 {
  %3 = alloca float, align 4
  %4 = alloca float, align 4
  store float %0, ptr %3, align 4, !tbaa !12
  store float %1, ptr %4, align 4, !tbaa !12
  %5 = load float, ptr %3, align 4, !tbaa !12
  %6 = load float, ptr %4, align 4, !tbaa !12
  %7 = fcmp oge float %5, %6
  br i1 %7, label %8, label %10

8:                                                ; preds = %2
  %9 = load float, ptr %3, align 4, !tbaa !12
  br label %12

10:                                               ; preds = %2
  %11 = load float, ptr %4, align 4, !tbaa !12
  br label %12

12:                                               ; preds = %10, %8
  %13 = phi float [ %9, %8 ], [ %11, %10 ]
  ret float %13
}

; Function Attrs: mustprogress uwtable
define dso_local void @_ZN10ImDrawList7AddTextEPK6ImFontfRK6ImVec2jPKcS7_fPK6ImVec4(ptr noundef nonnull align 8 dereferenceable(200) %0, ptr noundef %1, float noundef %2, ptr noundef nonnull align 4 dereferenceable(8) %3, i32 noundef %4, ptr noundef %5, ptr noundef %6, float noundef %7, ptr noundef %8) #6 align 2 {
  %10 = alloca ptr, align 8
  %11 = alloca ptr, align 8
  %12 = alloca float, align 4
  %13 = alloca ptr, align 8
  %14 = alloca i32, align 4
  %15 = alloca ptr, align 8
  %16 = alloca ptr, align 8
  %17 = alloca float, align 4
  %18 = alloca ptr, align 8
  %19 = alloca %struct.ImVec4, align 4
  store ptr %0, ptr %10, align 8, !tbaa !43
  store ptr %1, ptr %11, align 8, !tbaa !169
  store float %2, ptr %12, align 4, !tbaa !12
  store ptr %3, ptr %13, align 8, !tbaa !33
  store i32 %4, ptr %14, align 4, !tbaa !21
  store ptr %5, ptr %15, align 8, !tbaa !170
  store ptr %6, ptr %16, align 8, !tbaa !170
  store float %7, ptr %17, align 4, !tbaa !12
  store ptr %8, ptr %18, align 8, !tbaa !9
  %20 = load ptr, ptr %10, align 8
  %21 = load i32, ptr %14, align 4, !tbaa !21
  %22 = and i32 %21, -16777216
  %23 = icmp eq i32 %22, 0
  br i1 %23, label %24, label %25

24:                                               ; preds = %9
  br label %104

25:                                               ; preds = %9
  %26 = load ptr, ptr %15, align 8, !tbaa !170
  %27 = load ptr, ptr %16, align 8, !tbaa !170
  %28 = icmp eq ptr %26, %27
  br i1 %28, label %35, label %29

29:                                               ; preds = %25
  %30 = load ptr, ptr %15, align 8, !tbaa !170
  %31 = getelementptr inbounds i8, ptr %30, i64 0
  %32 = load i8, ptr %31, align 1, !tbaa !41
  %33 = sext i8 %32 to i32
  %34 = icmp eq i32 %33, 0
  br i1 %34, label %35, label %36

35:                                               ; preds = %29, %25
  br label %104

36:                                               ; preds = %29
  %37 = load ptr, ptr %16, align 8, !tbaa !170
  %38 = icmp eq ptr %37, null
  br i1 %38, label %39, label %44

39:                                               ; preds = %36
  %40 = load ptr, ptr %15, align 8, !tbaa !170
  %41 = load ptr, ptr %15, align 8, !tbaa !170
  %42 = call i64 @strlen(ptr noundef %41) #19
  %43 = getelementptr inbounds nuw i8, ptr %40, i64 %42
  store ptr %43, ptr %16, align 8, !tbaa !170
  br label %44

44:                                               ; preds = %39, %36
  %45 = load ptr, ptr %11, align 8, !tbaa !169
  %46 = icmp eq ptr %45, null
  br i1 %46, label %47, label %52

47:                                               ; preds = %44
  %48 = getelementptr inbounds nuw %struct.ImDrawList, ptr %20, i32 0, i32 5
  %49 = load ptr, ptr %48, align 8, !tbaa !60
  %50 = getelementptr inbounds nuw %struct.ImDrawListSharedData, ptr %49, i32 0, i32 1
  %51 = load ptr, ptr %50, align 8, !tbaa !171
  store ptr %51, ptr %11, align 8, !tbaa !169
  br label %52

52:                                               ; preds = %47, %44
  %53 = load float, ptr %12, align 4, !tbaa !12
  %54 = fcmp oeq float %53, 0.000000e+00
  br i1 %54, label %55, label %60

55:                                               ; preds = %52
  %56 = getelementptr inbounds nuw %struct.ImDrawList, ptr %20, i32 0, i32 5
  %57 = load ptr, ptr %56, align 8, !tbaa !60
  %58 = getelementptr inbounds nuw %struct.ImDrawListSharedData, ptr %57, i32 0, i32 2
  %59 = load float, ptr %58, align 8, !tbaa !172
  store float %59, ptr %12, align 4, !tbaa !12
  br label %60

60:                                               ; preds = %55, %52
  call void @llvm.lifetime.start.p0(i64 16, ptr %19) #17
  %61 = getelementptr inbounds nuw %struct.ImDrawList, ptr %20, i32 0, i32 9
  %62 = getelementptr inbounds nuw %struct.ImDrawCmdHeader, ptr %61, i32 0, i32 0
  call void @llvm.memcpy.p0.p0.i64(ptr align 4 %19, ptr align 8 %62, i64 16, i1 false), !tbaa.struct !11
  %63 = load ptr, ptr %18, align 8, !tbaa !9
  %64 = icmp ne ptr %63, null
  br i1 %64, label %65, label %94

65:                                               ; preds = %60
  %66 = getelementptr inbounds nuw %struct.ImVec4, ptr %19, i32 0, i32 0
  %67 = load float, ptr %66, align 4, !tbaa !14
  %68 = load ptr, ptr %18, align 8, !tbaa !9
  %69 = getelementptr inbounds nuw %struct.ImVec4, ptr %68, i32 0, i32 0
  %70 = load float, ptr %69, align 4, !tbaa !14
  %71 = call noundef float @_ZL5ImMaxIfET_S0_S0_(float noundef %67, float noundef %70)
  %72 = getelementptr inbounds nuw %struct.ImVec4, ptr %19, i32 0, i32 0
  store float %71, ptr %72, align 4, !tbaa !14
  %73 = getelementptr inbounds nuw %struct.ImVec4, ptr %19, i32 0, i32 1
  %74 = load float, ptr %73, align 4, !tbaa !16
  %75 = load ptr, ptr %18, align 8, !tbaa !9
  %76 = getelementptr inbounds nuw %struct.ImVec4, ptr %75, i32 0, i32 1
  %77 = load float, ptr %76, align 4, !tbaa !16
  %78 = call noundef float @_ZL5ImMaxIfET_S0_S0_(float noundef %74, float noundef %77)
  %79 = getelementptr inbounds nuw %struct.ImVec4, ptr %19, i32 0, i32 1
  store float %78, ptr %79, align 4, !tbaa !16
  %80 = getelementptr inbounds nuw %struct.ImVec4, ptr %19, i32 0, i32 2
  %81 = load float, ptr %80, align 4, !tbaa !17
  %82 = load ptr, ptr %18, align 8, !tbaa !9
  %83 = getelementptr inbounds nuw %struct.ImVec4, ptr %82, i32 0, i32 2
  %84 = load float, ptr %83, align 4, !tbaa !17
  %85 = call noundef float @_ZL5ImMinIfET_S0_S0_(float noundef %81, float noundef %84)
  %86 = getelementptr inbounds nuw %struct.ImVec4, ptr %19, i32 0, i32 2
  store float %85, ptr %86, align 4, !tbaa !17
  %87 = getelementptr inbounds nuw %struct.ImVec4, ptr %19, i32 0, i32 3
  %88 = load float, ptr %87, align 4, !tbaa !18
  %89 = load ptr, ptr %18, align 8, !tbaa !9
  %90 = getelementptr inbounds nuw %struct.ImVec4, ptr %89, i32 0, i32 3
  %91 = load float, ptr %90, align 4, !tbaa !18
  %92 = call noundef float @_ZL5ImMinIfET_S0_S0_(float noundef %88, float noundef %91)
  %93 = getelementptr inbounds nuw %struct.ImVec4, ptr %19, i32 0, i32 3
  store float %92, ptr %93, align 4, !tbaa !18
  br label %94

94:                                               ; preds = %65, %60
  %95 = load ptr, ptr %11, align 8, !tbaa !169
  %96 = load float, ptr %12, align 4, !tbaa !12
  %97 = load ptr, ptr %13, align 8, !tbaa !33
  %98 = load i32, ptr %14, align 4, !tbaa !21
  %99 = load ptr, ptr %15, align 8, !tbaa !170
  %100 = load ptr, ptr %16, align 8, !tbaa !170
  %101 = load float, ptr %17, align 4, !tbaa !12
  %102 = load ptr, ptr %18, align 8, !tbaa !9
  %103 = icmp ne ptr %102, null
  call void @_ZNK6ImFont10RenderTextEP10ImDrawListfRK6ImVec2jRK6ImVec4PKcS9_fb(ptr noundef nonnull align 8 dereferenceable(118) %95, ptr noundef %20, float noundef %96, ptr noundef nonnull align 4 dereferenceable(8) %97, i32 noundef %98, ptr noundef nonnull align 4 dereferenceable(16) %19, ptr noundef %99, ptr noundef %100, float noundef %101, i1 noundef zeroext %103)
  call void @llvm.lifetime.end.p0(i64 16, ptr %19) #17
  br label %104

104:                                              ; preds = %94, %35, %24
  ret void
}