; Function Attrs: mustprogress uwtable
define dso_local void @_ZN10ImDrawList7AddTextEPK6ImFontfRK6ImVec2jPKcS7_fPK6ImVec4(ptr noundef nonnull align 8 captures(none) dereferenceable(200) %0, ptr noundef readonly captures(address_is_null) %1, float noundef %2, ptr noundef nonnull readonly align 4 captures(none) dereferenceable(8) %3, i32 noundef %4, ptr noundef %5, ptr noundef %6, float noundef %7, ptr noundef readonly captures(address_is_null) %8) local_unnamed_addr #9 align 2 {
  %10 = alloca %struct.ImVec4, align 4
  %11 = icmp ult i32 %4, 16777216
  %12 = icmp eq ptr %5, %6
  %or.cond = or i1 %11, %12
  br i1 %or.cond, label %62, label %13

13:                                               ; preds = %9
  %14 = load i8, ptr %5, align 1, !tbaa !23
  %15 = icmp eq i8 %14, 0
  br i1 %15, label %62, label %16

16:                                               ; preds = %13
  %17 = icmp eq ptr %6, null
  br i1 %17, label %18, label %21

18:                                               ; preds = %16
  %19 = tail call i64 @strlen(ptr noundef nonnull dereferenceable(1) %5) #43
  %20 = getelementptr inbounds nuw i8, ptr %5, i64 %19
  br label %21

21:                                               ; preds = %18, %16
  %.023 = phi ptr [ %20, %18 ], [ %6, %16 ]
  %22 = icmp eq ptr %1, null
  br i1 %22, label %23, label %28

23:                                               ; preds = %21
  %24 = getelementptr inbounds nuw i8, ptr %0, i64 56
  %25 = load ptr, ptr %24, align 8, !tbaa !50
  %26 = getelementptr inbounds nuw i8, ptr %25, i64 8
  %27 = load ptr, ptr %26, align 8, !tbaa !133
  br label %28

28:                                               ; preds = %23, %21
  %.0 = phi ptr [ %27, %23 ], [ %1, %21 ]
  %29 = fcmp oeq float %2, 0.000000e+00
  br i1 %29, label %30, label %35

30:                                               ; preds = %28
  %31 = getelementptr inbounds nuw i8, ptr %0, i64 56
  %32 = load ptr, ptr %31, align 8, !tbaa !50
  %33 = getelementptr inbounds nuw i8, ptr %32, i64 16
  %34 = load float, ptr %33, align 8, !tbaa !134
  br label %35

35:                                               ; preds = %30, %28
  %.022 = phi float [ %34, %30 ], [ %2, %28 ]
  call void @llvm.lifetime.start.p0(i64 16, ptr nonnull %10) #42
  %36 = getelementptr inbounds nuw i8, ptr %0, i64 96
  call void @llvm.memcpy.p0.p0.i64(ptr noundef nonnull align 4 dereferenceable(16) %10, ptr noundef nonnull align 8 dereferenceable(16) %36, i64 16, i1 false), !tbaa.struct !8
  %37 = icmp ne ptr %8, null
  br i1 %37, label %38, label %61

38:                                               ; preds = %35
  %39 = load float, ptr %10, align 4, !tbaa !135
  %40 = load float, ptr %8, align 4, !tbaa !135
  %41 = fcmp oge float %39, %40
  %42 = select i1 %41, float %39, float %40
  store float %42, ptr %10, align 4, !tbaa !135
  %43 = getelementptr inbounds nuw i8, ptr %10, i64 4
  %44 = load float, ptr %43, align 4, !tbaa !136
  %45 = getelementptr inbounds nuw i8, ptr %8, i64 4
  %46 = load float, ptr %45, align 4, !tbaa !136
  %47 = fcmp oge float %44, %46
  %48 = select i1 %47, float %44, float %46
  store float %48, ptr %43, align 4, !tbaa !136
  %49 = getelementptr inbounds nuw i8, ptr %10, i64 8
  %50 = load float, ptr %49, align 4, !tbaa !137
  %51 = getelementptr inbounds nuw i8, ptr %8, i64 8
  %52 = load float, ptr %51, align 4, !tbaa !137
  %53 = fcmp olt float %50, %52
  %54 = select i1 %53, float %50, float %52
  store float %54, ptr %49, align 4, !tbaa !137
  %55 = getelementptr inbounds nuw i8, ptr %10, i64 12
  %56 = load float, ptr %55, align 4, !tbaa !138
  %57 = getelementptr inbounds nuw i8, ptr %8, i64 12
  %58 = load float, ptr %57, align 4, !tbaa !138
  %59 = fcmp olt float %56, %58
  %60 = select i1 %59, float %56, float %58
  store float %60, ptr %55, align 4, !tbaa !138
  br label %61

61:                                               ; preds = %38, %35
  call void @_ZNK6ImFont10RenderTextEP10ImDrawListfRK6ImVec2jRK6ImVec4PKcS9_fb(ptr noundef nonnull align 8 dereferenceable(118) %.0, ptr noundef nonnull %0, float noundef %.022, ptr noundef nonnull align 4 dereferenceable(8) %3, i32 noundef %4, ptr noundef nonnull align 4 dereferenceable(16) %10, ptr noundef nonnull %5, ptr noundef nonnull %.023, float noundef %7, i1 noundef zeroext %37)
  call void @llvm.lifetime.end.p0(i64 16, ptr nonnull %10) #42
  br label %62

62:                                               ; preds = %13, %9, %61
  ret void
}